; Function Attrs: mustprogress nofree norecurse nosync nounwind willreturn memory(none) uwtable
define hidden i64 @ASN1_tag2bit(i32 noundef %0) local_unnamed_addr #0 {
  %or.cond = icmp ugt i32 %0, 30
  br i1 %or.cond, label %6, label %2

2:                                                ; preds = %1
  %3 = zext nneg i32 %0 to i64
  %4 = getelementptr inbounds nuw [32 x i64], ptr @tag2bit, i64 0, i64 %3
  %5 = load i64, ptr %4, align 8, !tbaa !6
  br label %6

6:                                                ; preds = %1, %2
  %.0 = phi i64 [ %5, %2 ], [ 0, %1 ]
  ret i64 %.0
}